(lp0
S'pokemon_jpg/19'
p1
aS'pokemon_jpg/349'
p2
aS'pokemon_jpg/282'
p3
aS'pokemon_jpg/287'
p4
aS'pokemon_jpg/585-winter'
p5
aS'pokemon_jpg/599'
p6
aS'pokemon_jpg/262'
p7
aS'pokemon_jpg/25-belle'
p8
aS'pokemon_jpg/720'
p9
aS'pokemon_jpg/479-frost'
p10
aS'pokemon_jpg/719-mega'
p11
aS'pokemon_jpg/576'
p12
aS'pokemon_jpg/611'
p13
aS'pokemon_jpg/680'
p14
aS'pokemon_jpg/278'
p15
aS'pokemon_jpg/299'
p16
aS'pokemon_jpg/410'
p17
aS'pokemon_jpg/705'
p18
aS'pokemon_jpg/191'
p19
aS'pokemon_jpg/21'
p20
aS'pokemon_jpg/60'
p21
aS'pokemon_jpg/309'
p22
aS'pokemon_jpg/615'
p23
aS'pokemon_jpg/546'
p24
aS'pokemon_jpg/677'
p25
aS'pokemon_jpg/256'
p26
aS'pokemon_jpg/681-blade'
p27
aS'pokemon_jpg/413-trash'
p28
aS'pokemon_jpg/633'
p29
aS'pokemon_jpg/498'
p30
aS'pokemon_jpg/586-autumn'
p31
aS'pokemon_jpg/166'
p32
aS'pokemon_jpg/54'
p33
aS'pokemon_jpg/476'
p34
aS'pokemon_jpg/223'
p35
aS'pokemon_jpg/685'
p36
aS'pokemon_jpg/198'
p37
aS'pokemon_jpg/586-autumn'
p38
aS'pokemon_jpg/224'
p39
aS'pokemon_jpg/300'
p40
aS'pokemon_jpg/526'
p41
aS'pokemon_jpg/368'
p42
aS'pokemon_jpg/450'
p43
aS'pokemon_jpg/60'
p44
aS'pokemon_jpg/625'
p45
aS'pokemon_jpg/638'
p46
aS'pokemon_jpg/499'
p47
aS'pokemon_jpg/66'
p48
aS'pokemon_jpg/288'
p49
aS'pokemon_jpg/476'
p50
aS'pokemon_jpg/531-mega'
p51
aS'pokemon_jpg/120'
p52
aS'pokemon_jpg/218'
p53
aS'pokemon_jpg/300'
p54
aS'pokemon_jpg/11'
p55
aS'pokemon_jpg/425'
p56
aS'pokemon_jpg/421-sunshine'
p57
aS'pokemon_jpg/491'
p58
aS'pokemon_jpg/719'
p59
aS'pokemon_jpg/654'
p60
aS'pokemon_jpg/302-mega'
p61
aS'pokemon_jpg/593'
p62
aS'pokemon_jpg/157'
p63
aS'pokemon_jpg/474'
p64
aS'pokemon_jpg/292'
p65
aS'pokemon_jpg/25-rock-star'
p66
aS'pokemon_jpg/128'
p67
aS'pokemon_jpg/692'
p68
aS'pokemon_jpg/314'
p69
aS'pokemon_jpg/605'
p70
aS'pokemon_jpg/407'
p71
aS'pokemon_jpg/279'
p72
aS'pokemon_jpg/304'
p73
aS'pokemon_jpg/208'
p74
aS'pokemon_jpg/236'
p75
aS'pokemon_jpg/404'
p76
aS'pokemon_jpg/327'
p77
aS'pokemon_jpg/612'
p78
aS'pokemon_jpg/588'
p79
aS'pokemon_jpg/479-mow'
p80
aS'pokemon_jpg/124'
p81
aS'pokemon_jpg/336'
p82
aS'pokemon_jpg/221'
p83
aS'pokemon_jpg/588'
p84
aS'pokemon_jpg/575'
p85
aS'pokemon_jpg/492-land'
p86
aS'pokemon_jpg/641-therian'
p87
aS'pokemon_jpg/414'
p88
aS'pokemon_jpg/268'
p89
aS'pokemon_jpg/370'
p90
aS'pokemon_jpg/465'
p91
aS'pokemon_jpg/313'
p92
aS'pokemon_jpg/241'
p93
aS'pokemon_jpg/679'
p94
aS'pokemon_jpg/446'
p95
aS'pokemon_jpg/512'
p96
aS'pokemon_jpg/448-mega'
p97
aS'pokemon_jpg/661'
p98
aS'pokemon_jpg/365'
p99
aS'pokemon_jpg/156'
p100
aS'pokemon_jpg/18'
p101
aS'pokemon_jpg/9-mega'
p102
aS'pokemon_jpg/415'
p103
aS'pokemon_jpg/659'
p104
aS'pokemon_jpg/678'
p105
aS'pokemon_jpg/310'
p106
aS'pokemon_jpg/362-mega'
p107
aS'pokemon_jpg/648-pirouette'
p108
aS'pokemon_jpg/430'
p109
aS'pokemon_jpg/166'
p110
aS'pokemon_jpg/225'
p111
aS'pokemon_jpg/600'
p112
aS'pokemon_jpg/324'
p113
aS'pokemon_jpg/641-therian'
p114
aS'pokemon_jpg/449'
p115
aS'pokemon_jpg/299'
p116
aS'pokemon_jpg/533'
p117
aS'pokemon_jpg/128'
p118
aS'pokemon_jpg/604'
p119
aS'pokemon_jpg/521'
p120
aS'pokemon_jpg/227'
p121
aS'pokemon_jpg/74'
p122
aS'pokemon_jpg/266'
p123
aS'pokemon_jpg/138'
p124
aS'pokemon_jpg/506'
p125
aS'pokemon_jpg/606'
p126
aS'pokemon_jpg/498'
p127
aS'pokemon_jpg/334'
p128
aS'pokemon_jpg/121'
p129
aS'pokemon_jpg/625'
p130
aS'pokemon_jpg/204'
p131
aS'pokemon_jpg/531'
p132
aS'pokemon_jpg/445-mega'
p133
aS'pokemon_jpg/141'
p134
aS'pokemon_jpg/248'
p135
aS'pokemon_jpg/144'
p136
aS'pokemon_jpg/30'
p137
aS'pokemon_jpg/675'
p138
aS'pokemon_jpg/696'
p139
aS'pokemon_jpg/287'
p140
aS'pokemon_jpg/592f'
p141
aS'pokemon_jpg/245'
p142
aS'pokemon_jpg/386-defense'
p143
aS'pokemon_jpg/370'
p144
aS'pokemon_jpg/278'
p145
aS'pokemon_jpg/627'
p146
aS'pokemon_jpg/323-mega'
p147
aS'pokemon_jpg/479'
p148
aS'pokemon_jpg/167'
p149
aS'pokemon_jpg/309'
p150
aS'pokemon_jpg/521f'
p151
aS'pokemon_jpg/157'
p152
aS'pokemon_jpg/313'
p153
aS'pokemon_jpg/469'
p154
aS'pokemon_jpg/720-unbound'
p155
aS'pokemon_jpg/278'
p156
aS'pokemon_jpg/179'
p157
aS'pokemon_jpg/358'
p158
aS'pokemon_jpg/332'
p159
aS'pokemon_jpg/240'
p160
aS'pokemon_jpg/400'
p161
aS'pokemon_jpg/137'
p162
aS'pokemon_jpg/89'
p163
aS'pokemon_jpg/6-mega-y'
p164
aS'pokemon_jpg/532'
p165
aS'pokemon_jpg/455'
p166
aS'pokemon_jpg/302-mega'
p167
aS'pokemon_jpg/607'
p168
aS'pokemon_jpg/307'
p169
aS'pokemon_jpg/164'
p170
aS'pokemon_jpg/211'
p171
aS'pokemon_jpg/3-mega'
p172
aS'pokemon_jpg/591'
p173
aS'pokemon_jpg/136'
p174
aS'pokemon_jpg/190'
p175
aS'pokemon_jpg/293'
p176
aS'pokemon_jpg/615'
p177
aS'pokemon_jpg/422-east'
p178
aS'pokemon_jpg/719'
p179
aS'pokemon_jpg/593f'
p180
aS'pokemon_jpg/292'
p181
aS'pokemon_jpg/452'
p182
aS'pokemon_jpg/267'
p183
aS'pokemon_jpg/346'
p184
aS'pokemon_jpg/329'
p185
aS'pokemon_jpg/142-mega'
p186
aS'pokemon_jpg/145'
p187
aS'pokemon_jpg/422-east'
p188
aS'pokemon_jpg/354-mega'
p189
aS'pokemon_jpg/272'
p190
aS'pokemon_jpg/424'
p191
aS'pokemon_jpg/696'
p192
aS'pokemon_jpg/694'
p193
aS'pokemon_jpg/563'
p194
aS'pokemon_jpg/3'
p195
aS'pokemon_jpg/472'
p196
aS'pokemon_jpg/306'
p197
aS'pokemon_jpg/630'
p198
aS'pokemon_jpg/349'
p199
aS'pokemon_jpg/585-spring'
p200
aS'pokemon_jpg/282-mega'
p201
aS'pokemon_jpg/140'
p202
aS'pokemon_jpg/369'
p203
aS'pokemon_jpg/56'
p204
aS'pokemon_jpg/57'
p205
aS'pokemon_jpg/442'
p206
aS'pokemon_jpg/567'
p207
aS'pokemon_jpg/586-winter'
p208
aS'pokemon_jpg/270'
p209
aS'pokemon_jpg/533'
p210
aS'pokemon_jpg/704'
p211
aS'pokemon_jpg/232'
p212
aS'pokemon_jpg/701'
p213
aS'pokemon_jpg/170'
p214
aS'pokemon_jpg/149'
p215
aS'pokemon_jpg/553'
p216
aS'pokemon_jpg/508'
p217
aS'pokemon_jpg/230'
p218
aS'pokemon_jpg/548'
p219
aS'pokemon_jpg/503'
p220
aS'pokemon_jpg/479-fan'
p221
aS'pokemon_jpg/419'
p222
aS'pokemon_jpg/330'
p223
aS'pokemon_jpg/629'
p224
aS'pokemon_jpg/21'
p225
aS'pokemon_jpg/209'
p226
aS'pokemon_jpg/479'
p227
aS'pokemon_jpg/437'
p228
aS'pokemon_jpg/303'
p229
aS'pokemon_jpg/307'
p230
aS'pokemon_jpg/698'
p231
aS'pokemon_jpg/606'
p232
aS'pokemon_jpg/433'
p233
aS'pokemon_jpg/288'
p234
aS'pokemon_jpg/447'
p235
aS'pokemon_jpg/504'
p236
aS'pokemon_jpg/414'
p237
aS'pokemon_jpg/386-attack'
p238
aS'pokemon_jpg/674'
p239
aS'pokemon_jpg/18-mega'
p240
aS'pokemon_jpg/193'
p241
aS'pokemon_jpg/620'
p242
aS'pokemon_jpg/151'
p243
aS'pokemon_jpg/18'
p244
aS'pokemon_jpg/226'
p245
aS'pokemon_jpg/354-mega'
p246
aS'pokemon_jpg/334'
p247
aS'pokemon_jpg/592'
p248
aS'pokemon_jpg/193'
p249
aS'pokemon_jpg/285'
p250
aS'pokemon_jpg/510'
p251
aS'pokemon_jpg/671'
p252
aS'pokemon_jpg/553'
p253
aS'pokemon_jpg/108'
p254
aS'pokemon_jpg/429'
p255
aS'pokemon_jpg/646-black'
p256
aS'pokemon_jpg/580'
p257
aS'pokemon_jpg/646-black'
p258
aS'pokemon_jpg/176'
p259
aS'pokemon_jpg/276'
p260
aS'pokemon_jpg/335'
p261
aS'pokemon_jpg/354'
p262
aS'pokemon_jpg/34'
p263
aS'pokemon_jpg/242'
p264
aS'pokemon_jpg/587'
p265
aS'pokemon_jpg/277'
p266
aS'pokemon_jpg/564'
p267
aS'pokemon_jpg/218'
p268
aS'pokemon_jpg/354-mega'
p269
aS'pokemon_jpg/52'
p270
aS'pokemon_jpg/170'
p271
aS'pokemon_jpg/411'
p272
aS'pokemon_jpg/475'
p273
aS'pokemon_jpg/249'
p274
aS'pokemon_jpg/38'
p275
aS'pokemon_jpg/586-autumn'
p276
aS'pokemon_jpg/335'
p277
aS'pokemon_jpg/344'
p278
aS'pokemon_jpg/471'
p279
aS'pokemon_jpg/57'
p280
aS'pokemon_jpg/1'
p281
aS'pokemon_jpg/339'
p282
aS'pokemon_jpg/697'
p283
aS'pokemon_jpg/151'
p284
aS'pokemon_jpg/258'
p285
aS'pokemon_jpg/443'
p286
aS'pokemon_jpg/245'
p287
aS'pokemon_jpg/325'
p288
aS'pokemon_jpg/665'
p289
aS'pokemon_jpg/121'
p290
aS'pokemon_jpg/268'
p291
aS'pokemon_jpg/386-normal'
p292
aS'pokemon_jpg/529'
p293
aS'pokemon_jpg/313'
p294
aS'pokemon_jpg/346'
p295
aS'pokemon_jpg/488'
p296
aS'pokemon_jpg/287'
p297
aS'pokemon_jpg/452'
p298
aS'pokemon_jpg/330'
p299
aS'pokemon_jpg/396'
p300
aS'pokemon_jpg/324'
p301
aS'pokemon_jpg/49'
p302
aS'pokemon_jpg/78'
p303
aS'pokemon_jpg/290'
p304
aS'pokemon_jpg/554'
p305
aS'pokemon_jpg/646'
p306
aS'pokemon_jpg/226'
p307
aS'pokemon_jpg/121'
p308
aS'pokemon_jpg/635'
p309
aS'pokemon_jpg/416'
p310
aS'pokemon_jpg/546'
p311
aS'pokemon_jpg/137'
p312
aS'pokemon_jpg/554'
p313
aS'pokemon_jpg/118'
p314
aS'pokemon_jpg/181-mega'
p315
aS'pokemon_jpg/209'
p316
aS'pokemon_jpg/92'
p317
aS'pokemon_jpg/106'
p318
aS'pokemon_jpg/127-mega'
p319
aS'pokemon_jpg/433'
p320
aS'pokemon_jpg/299'
p321
aS'pokemon_jpg/587'
p322
aS'pokemon_jpg/645-incarnate'
p323
aS'pokemon_jpg/362'
p324
aS'pokemon_jpg/51'
p325
aS'pokemon_jpg/337'
p326
aS'pokemon_jpg/354'
p327
aS'pokemon_jpg/322'
p328
a.
